#include <math.h>
#include <stdio.h>
#include <stdlib.h>
#include <string.h>

int main()
{
char s[101];
char ss[100];
gets(s);
int i,j=0;
for(i=0;i<strlen(s);i++)
  {
  if(s[i]!=' ')
    {
   ss[j]=s[i];
      j++;
    }
   else if(s[i]==' '&&s[i+1]!=' ')
     {
       ss[j]=' ';
       ss[j+1]=s[i+1];
      j++;
   }
    
 }
 int m;
for(m=0;m<j;m++)
    {
    printf("%c",ss[m]);
     }
 return 0;
}



